target datalayout = "e-m:e-p270:32:32-p271:32:32-p272:64:64-i64:64-i128:128-f80:128-n8:16:32:64-S128"
target triple = "x86_64-pc-linux-gnu"

; Function Attrs: nounwind uwtable
define internal i64 @md_ctrl(ptr noundef %0, i32 noundef %1, i64 noundef %2, ptr noundef %3) #0 {
  %5 = alloca i64, align 8
  %6 = alloca ptr, align 8
  %7 = alloca i32, align 4
  %8 = alloca i64, align 8
  %9 = alloca ptr, align 8
  %10 = alloca ptr, align 8
  %11 = alloca ptr, align 8
  %12 = alloca ptr, align 8
  %13 = alloca ptr, align 8
  %14 = alloca ptr, align 8
  %15 = alloca i64, align 8
  %16 = alloca ptr, align 8
  %17 = alloca ptr, align 8
  %18 = alloca i32, align 4
  store ptr %0, ptr %6, align 8, !tbaa !3
  store i32 %1, ptr %7, align 4, !tbaa !10
  store i64 %2, ptr %8, align 8, !tbaa !14
  store ptr %3, ptr %9, align 8, !tbaa !16
  call void @llvm.lifetime.start.p0(i64 8, ptr %10) #3
  call void @llvm.lifetime.start.p0(i64 8, ptr %11) #3
  call void @llvm.lifetime.start.p0(i64 8, ptr %12) #3
  call void @llvm.lifetime.start.p0(i64 8, ptr %13) #3
  call void @llvm.lifetime.start.p0(i64 8, ptr %14) #3
  call void @llvm.lifetime.start.p0(i64 8, ptr %15) #3
  store i64 1, ptr %15, align 8, !tbaa !14
  call void @llvm.lifetime.start.p0(i64 8, ptr %16) #3
  call void @llvm.lifetime.start.p0(i64 8, ptr %17) #3
  %19 = load ptr, ptr %6, align 8, !tbaa !3
  %20 = call ptr @BIO_get_data(ptr noundef %19)
  store ptr %20, ptr %10, align 8, !tbaa !12
  %21 = load ptr, ptr %6, align 8, !tbaa !3
  %22 = call ptr @BIO_next(ptr noundef %21)
  store ptr %22, ptr %17, align 8, !tbaa !3
  %23 = load i32, ptr %7, align 4, !tbaa !10
  switch i32 %23, label %100 [
    i32 1, label %24
    i32 112, label %45
    i32 120, label %56
    i32 148, label %61
    i32 101, label %70
    i32 111, label %78
    i32 12, label %89
  ]

24:                                               ; preds = %4
  %25 = load ptr, ptr %6, align 8, !tbaa !3
  %26 = call i32 @BIO_get_init(ptr noundef %25)
  %27 = icmp ne i32 %26, 0
  br i1 %27, label %28, label %34

28:                                               ; preds = %24
  %29 = load ptr, ptr %10, align 8, !tbaa !12
  %30 = load ptr, ptr %10, align 8, !tbaa !12
  %31 = call ptr @EVP_MD_CTX_get0_md(ptr noundef %30)
  %32 = call i32 @EVP_DigestInit_ex(ptr noundef %29, ptr noundef %31, ptr noundef null)
  %33 = sext i32 %32 to i64
  store i64 %33, ptr %15, align 8, !tbaa !14
  br label %35

34:                                               ; preds = %24
  store i64 0, ptr %15, align 8, !tbaa !14
  br label %35

35:                                               ; preds = %34, %28
  %36 = load i64, ptr %15, align 8, !tbaa !14
  %37 = icmp sgt i64 %36, 0
  br i1 %37, label %38, label %44

38:                                               ; preds = %35
  %39 = load ptr, ptr %17, align 8, !tbaa !3
  %40 = load i32, ptr %7, align 4, !tbaa !10
  %41 = load i64, ptr %8, align 8, !tbaa !14
  %42 = load ptr, ptr %9, align 8, !tbaa !16
  %43 = call i64 @BIO_ctrl(ptr noundef %39, i32 noundef %40, i64 noundef %41, ptr noundef %42)
  store i64 %43, ptr %15, align 8, !tbaa !14
  br label %44

44:                                               ; preds = %38, %35
  br label %106

45:                                               ; preds = %4
  %46 = load ptr, ptr %6, align 8, !tbaa !3
  %47 = call i32 @BIO_get_init(ptr noundef %46)
  %48 = icmp ne i32 %47, 0
  br i1 %48, label %49, label %54

49:                                               ; preds = %45
  %50 = load ptr, ptr %9, align 8, !tbaa !16
  store ptr %50, ptr %13, align 8, !tbaa !17
  %51 = load ptr, ptr %10, align 8, !tbaa !12
  %52 = call ptr @EVP_MD_CTX_get0_md(ptr noundef %51)
  %53 = load ptr, ptr %13, align 8, !tbaa !17
  store ptr %52, ptr %53, align 8, !tbaa !19
  br label %55

54:                                               ; preds = %45
  store i64 0, ptr %15, align 8, !tbaa !14
  br label %55

55:                                               ; preds = %54, %49
  br label %106

56:                                               ; preds = %4
  %57 = load ptr, ptr %9, align 8, !tbaa !16
  store ptr %57, ptr %12, align 8, !tbaa !21
  %58 = load ptr, ptr %10, align 8, !tbaa !12
  %59 = load ptr, ptr %12, align 8, !tbaa !21
  store ptr %58, ptr %59, align 8, !tbaa !12
  %60 = load ptr, ptr %6, align 8, !tbaa !3
  call void @BIO_set_init(ptr noundef %60, i32 noundef 1)
  br label %106

61:                                               ; preds = %4
  %62 = load ptr, ptr %6, align 8, !tbaa !3
  %63 = call i32 @BIO_get_init(ptr noundef %62)
  %64 = icmp ne i32 %63, 0
  br i1 %64, label %65, label %68

65:                                               ; preds = %61
  %66 = load ptr, ptr %6, align 8, !tbaa !3
  %67 = load ptr, ptr %9, align 8, !tbaa !16
  call void @BIO_set_data(ptr noundef %66, ptr noundef %67)
  br label %69

68:                                               ; preds = %61
  store i64 0, ptr %15, align 8, !tbaa !14
  br label %69

69:                                               ; preds = %68, %65
  br label %106

70:                                               ; preds = %4
  %71 = load ptr, ptr %6, align 8, !tbaa !3
  call void @BIO_clear_flags(ptr noundef %71, i32 noundef 15)
  %72 = load ptr, ptr %17, align 8, !tbaa !3
  %73 = load i32, ptr %7, align 4, !tbaa !10
  %74 = load i64, ptr %8, align 8, !tbaa !14
  %75 = load ptr, ptr %9, align 8, !tbaa !16
  %76 = call i64 @BIO_ctrl(ptr noundef %72, i32 noundef %73, i64 noundef %74, ptr noundef %75)
  store i64 %76, ptr %15, align 8, !tbaa !14
  %77 = load ptr, ptr %6, align 8, !tbaa !3
  call void @BIO_copy_next_retry(ptr noundef %77)
  br label %106

78:                                               ; preds = %4
  %79 = load ptr, ptr %9, align 8, !tbaa !16
  store ptr %79, ptr %14, align 8, !tbaa !19
  %80 = load ptr, ptr %10, align 8, !tbaa !12
  %81 = load ptr, ptr %14, align 8, !tbaa !19
  %82 = call i32 @EVP_DigestInit_ex(ptr noundef %80, ptr noundef %81, ptr noundef null)
  %83 = sext i32 %82 to i64
  store i64 %83, ptr %15, align 8, !tbaa !14
  %84 = load i64, ptr %15, align 8, !tbaa !14
  %85 = icmp sgt i64 %84, 0
  br i1 %85, label %86, label %88

86:                                               ; preds = %78
  %87 = load ptr, ptr %6, align 8, !tbaa !3
  call void @BIO_set_init(ptr noundef %87, i32 noundef 1)
  br label %88

88:                                               ; preds = %86, %78
  br label %106

89:                                               ; preds = %4
  %90 = load ptr, ptr %9, align 8, !tbaa !16
  store ptr %90, ptr %16, align 8, !tbaa !3
  %91 = load ptr, ptr %16, align 8, !tbaa !3
  %92 = call ptr @BIO_get_data(ptr noundef %91)
  store ptr %92, ptr %11, align 8, !tbaa !12
  %93 = load ptr, ptr %11, align 8, !tbaa !12
  %94 = load ptr, ptr %10, align 8, !tbaa !12
  %95 = call i32 @EVP_MD_CTX_copy_ex(ptr noundef %93, ptr noundef %94)
  %96 = icmp ne i32 %95, 0
  br i1 %96, label %98, label %97

97:                                               ; preds = %89
  store i64 0, ptr %5, align 8
  store i32 1, ptr %18, align 4
  br label %108

98:                                               ; preds = %89
  %99 = load ptr, ptr %6, align 8, !tbaa !3
  call void @BIO_set_init(ptr noundef %99, i32 noundef 1)
  br label %106

100:                                              ; preds = %4
  %101 = load ptr, ptr %17, align 8, !tbaa !3
  %102 = load i32, ptr %7, align 4, !tbaa !10
  %103 = load i64, ptr %8, align 8, !tbaa !14
  %104 = load ptr, ptr %9, align 8, !tbaa !16
  %105 = call i64 @BIO_ctrl(ptr noundef %101, i32 noundef %102, i64 noundef %103, ptr noundef %104)
  store i64 %105, ptr %15, align 8, !tbaa !14
  br label %106

106:                                              ; preds = %100, %98, %88, %70, %69, %56, %55, %44
  %107 = load i64, ptr %15, align 8, !tbaa !14
  store i64 %107, ptr %5, align 8
  store i32 1, ptr %18, align 4
  br label %108

108:                                              ; preds = %106, %97
  call void @llvm.lifetime.end.p0(i64 8, ptr %17) #3
  call void @llvm.lifetime.end.p0(i64 8, ptr %16) #3
  call void @llvm.lifetime.end.p0(i64 8, ptr %15) #3
  call void @llvm.lifetime.end.p0(i64 8, ptr %14) #3
  call void @llvm.lifetime.end.p0(i64 8, ptr %13) #3
  call void @llvm.lifetime.end.p0(i64 8, ptr %12) #3
  call void @llvm.lifetime.end.p0(i64 8, ptr %11) #3
  call void @llvm.lifetime.end.p0(i64 8, ptr %10) #3
  %109 = load i64, ptr %5, align 8
  ret i64 %109
}