; Function Attrs: nounwind uwtable
define internal i64 @md_ctrl(ptr noundef %0, i32 noundef %1, i64 noundef %2, ptr noundef %3) #2 {
  %5 = tail call ptr @BIO_get_data(ptr noundef %0) #4
  %6 = tail call ptr @BIO_next(ptr noundef %0) #4
  switch i32 %1, label %35 [
    i32 1, label %7
    i32 112, label %16
    i32 120, label %20
    i32 148, label %21
    i32 101, label %24
    i32 111, label %26
    i32 12, label %31
  ]

7:                                                ; preds = %4
  %8 = tail call i32 @BIO_get_init(ptr noundef %0) #4
  %.not50 = icmp eq i32 %8, 0
  br i1 %.not50, label %.thread, label %9

9:                                                ; preds = %7
  %10 = tail call ptr @EVP_MD_CTX_get0_md(ptr noundef %5) #4
  %11 = tail call i32 @EVP_DigestInit_ex(ptr noundef %5, ptr noundef %10, ptr noundef null) #4
  %12 = sext i32 %11 to i64
  %13 = icmp sgt i32 %11, 0
  br i1 %13, label %14, label %.thread

14:                                               ; preds = %9
  %15 = tail call i64 @BIO_ctrl(ptr noundef %6, i32 noundef 1, i64 noundef %2, ptr noundef %3) #4
  br label %.thread

16:                                               ; preds = %4
  %17 = tail call i32 @BIO_get_init(ptr noundef %0) #4
  %.not49 = icmp eq i32 %17, 0
  br i1 %.not49, label %.thread, label %18

18:                                               ; preds = %16
  %19 = tail call ptr @EVP_MD_CTX_get0_md(ptr noundef %5) #4
  store ptr %19, ptr %3, align 8, !tbaa !3
  br label %.thread

20:                                               ; preds = %4
  store ptr %5, ptr %3, align 8, !tbaa !8
  tail call void @BIO_set_init(ptr noundef %0, i32 noundef 1) #4
  br label %.thread

21:                                               ; preds = %4
  %22 = tail call i32 @BIO_get_init(ptr noundef %0) #4
  %.not48 = icmp eq i32 %22, 0
  br i1 %.not48, label %.thread, label %23

23:                                               ; preds = %21
  tail call void @BIO_set_data(ptr noundef %0, ptr noundef %3) #4
  br label %.thread

24:                                               ; preds = %4
  tail call void @BIO_clear_flags(ptr noundef %0, i32 noundef 15) #4
  %25 = tail call i64 @BIO_ctrl(ptr noundef %6, i32 noundef 101, i64 noundef %2, ptr noundef %3) #4
  tail call void @BIO_copy_next_retry(ptr noundef %0) #4
  br label %.thread

26:                                               ; preds = %4
  %27 = tail call i32 @EVP_DigestInit_ex(ptr noundef %5, ptr noundef %3, ptr noundef null) #4
  %28 = sext i32 %27 to i64
  %29 = icmp sgt i32 %27, 0
  br i1 %29, label %30, label %.thread

30:                                               ; preds = %26
  tail call void @BIO_set_init(ptr noundef %0, i32 noundef 1) #4
  br label %.thread

31:                                               ; preds = %4
  %32 = tail call ptr @BIO_get_data(ptr noundef %3) #4
  %33 = tail call i32 @EVP_MD_CTX_copy_ex(ptr noundef %32, ptr noundef %5) #4
  %.not = icmp eq i32 %33, 0
  br i1 %.not, label %.thread, label %34

34:                                               ; preds = %31
  tail call void @BIO_set_init(ptr noundef %0, i32 noundef 1) #4
  br label %.thread

35:                                               ; preds = %4
  %36 = tail call i64 @BIO_ctrl(ptr noundef %6, i32 noundef %1, i64 noundef %2, ptr noundef %3) #4
  br label %.thread

.thread:                                          ; preds = %7, %20, %24, %34, %35, %14, %9, %18, %23, %30, %26, %16, %21, %31
  %.0 = phi i64 [ 0, %31 ], [ %36, %35 ], [ 1, %34 ], [ %28, %30 ], [ %28, %26 ], [ %25, %24 ], [ 1, %23 ], [ 1, %20 ], [ 1, %18 ], [ %15, %14 ], [ %12, %9 ], [ 0, %16 ], [ 0, %21 ], [ 0, %7 ]
  ret i64 %.0
}